; Function Attrs: mustprogress nounwind uwtable
define void @_ZN4pkpy7SStream9write_hexEhb(ptr nocapture noundef nonnull align 8 dereferenceable(20) %0, i8 noundef zeroext %1, i1 noundef zeroext %2) local_unnamed_addr #4 align 2 {
  %4 = lshr i8 %1, 4
  %5 = and i8 %1, 15
  br i1 %2, label %6, label %53

6:                                                ; preds = %3
  %7 = icmp ugt i8 %1, 15
  br i1 %7, label %8, label %32

8:                                                ; preds = %6
  %9 = load ptr, ptr @_ZN4pkpy12PK_HEX_TABLEE, align 8
  %10 = zext nneg i8 %4 to i64
  %11 = getelementptr inbounds i8, ptr %9, i64 %10
  %12 = load i8, ptr %11, align 1
  %13 = load i32, ptr %0, align 8
  %14 = getelementptr inbounds i8, ptr %0, i64 4
  %15 = load i32, ptr %14, align 4
  %16 = icmp eq i32 %13, %15
  br i1 %16, label %17, label %.thread

17:                                               ; preds = %8
  %18 = shl nsw i32 %13, 1
  %.not.i.i.i = icmp slt i32 %13, %18
  br i1 %.not.i.i.i, label %19, label %.thread

19:                                               ; preds = %17
  store i32 %18, ptr %14, align 4
  %20 = getelementptr inbounds i8, ptr %0, i64 8
  %21 = load ptr, ptr %20, align 8
  %22 = sext i32 %18 to i64
  %23 = tail call noundef ptr @_ZN4pkpy12pool64_allocEm(i64 noundef %22) #23
  store ptr %23, ptr %20, align 8
  %.not6.i.i.i = icmp eq ptr %21, null
  %.pre2.i.i = load i32, ptr %0, align 8
  br i1 %.not6.i.i.i, label %.thread, label %24

24:                                               ; preds = %19
  %25 = sext i32 %.pre2.i.i to i64
  tail call void @llvm.memcpy.p0.p0.i64(ptr align 1 %23, ptr nonnull align 1 %21, i64 %25, i1 false)
  tail call void @_ZN4pkpy14pool64_deallocEPv(ptr noundef nonnull %21) #23
  %.pre.i.i = load i32, ptr %0, align 8
  br label %.thread

.thread:                                          ; preds = %24, %19, %17, %8
  %26 = phi i32 [ %.pre.i.i, %24 ], [ %.pre2.i.i, %19 ], [ %13, %17 ], [ %13, %8 ]
  %27 = getelementptr inbounds i8, ptr %0, i64 8
  %28 = load ptr, ptr %27, align 8
  %29 = add nsw i32 %26, 1
  store i32 %29, ptr %0, align 8
  %30 = sext i32 %26 to i64
  %31 = getelementptr inbounds i8, ptr %28, i64 %30
  store i8 %12, ptr %31, align 1
  br label %33

32:                                               ; preds = %6
  %or.cond.not = icmp eq i8 %1, 0
  br i1 %or.cond.not, label %96, label %33

33:                                               ; preds = %.thread, %32
  %34 = load ptr, ptr @_ZN4pkpy12PK_HEX_TABLEE, align 8
  %35 = zext nneg i8 %5 to i64
  %36 = getelementptr inbounds i8, ptr %34, i64 %35
  %37 = load i8, ptr %36, align 1
  %38 = load i32, ptr %0, align 8
  %39 = getelementptr inbounds i8, ptr %0, i64 4
  %40 = load i32, ptr %39, align 4
  %41 = icmp eq i32 %38, %40
  br i1 %41, label %42, label %_ZN4pkpy7SStreamlsEc.exit15

42:                                               ; preds = %33
  %43 = shl nsw i32 %38, 1
  %.not.i.i.i11 = icmp slt i32 %38, %43
  br i1 %.not.i.i.i11, label %44, label %_ZN4pkpy7SStreamlsEc.exit15

44:                                               ; preds = %42
  store i32 %43, ptr %39, align 4
  %45 = getelementptr inbounds i8, ptr %0, i64 8
  %46 = load ptr, ptr %45, align 8
  %47 = sext i32 %43 to i64
  %48 = tail call noundef ptr @_ZN4pkpy12pool64_allocEm(i64 noundef %47) #23
  store ptr %48, ptr %45, align 8
  %.not6.i.i.i12 = icmp eq ptr %46, null
  %.pre2.i.i13 = load i32, ptr %0, align 8
  br i1 %.not6.i.i.i12, label %_ZN4pkpy7SStreamlsEc.exit15, label %49

49:                                               ; preds = %44
  %50 = sext i32 %.pre2.i.i13 to i64
  tail call void @llvm.memcpy.p0.p0.i64(ptr align 1 %48, ptr nonnull align 1 %46, i64 %50, i1 false)
  tail call void @_ZN4pkpy14pool64_deallocEPv(ptr noundef nonnull %46) #23
  %.pre.i.i14 = load i32, ptr %0, align 8
  br label %_ZN4pkpy7SStreamlsEc.exit15

_ZN4pkpy7SStreamlsEc.exit15:                      ; preds = %33, %42, %44, %49
  %51 = phi i32 [ %.pre.i.i14, %49 ], [ %.pre2.i.i13, %44 ], [ %38, %42 ], [ %38, %33 ]
  %52 = getelementptr inbounds i8, ptr %0, i64 8
  br label %.sink.split

53:                                               ; preds = %3
  %54 = load ptr, ptr @_ZN4pkpy12PK_HEX_TABLEE, align 8
  %55 = zext nneg i8 %4 to i64
  %56 = getelementptr inbounds i8, ptr %54, i64 %55
  %57 = load i8, ptr %56, align 1
  %58 = load i32, ptr %0, align 8
  %59 = getelementptr inbounds i8, ptr %0, i64 4
  %60 = load i32, ptr %59, align 4
  %61 = icmp eq i32 %58, %60
  br i1 %61, label %62, label %_ZN4pkpy7SStreamlsEc.exit20

62:                                               ; preds = %53
  %63 = shl nsw i32 %58, 1
  %.not.i.i.i16 = icmp slt i32 %58, %63
  br i1 %.not.i.i.i16, label %64, label %_ZN4pkpy7SStreamlsEc.exit20

64:                                               ; preds = %62
  store i32 %63, ptr %59, align 4
  %65 = getelementptr inbounds i8, ptr %0, i64 8
  %66 = load ptr, ptr %65, align 8
  %67 = sext i32 %63 to i64
  %68 = tail call noundef ptr @_ZN4pkpy12pool64_allocEm(i64 noundef %67) #23
  store ptr %68, ptr %65, align 8
  %.not6.i.i.i17 = icmp eq ptr %66, null
  %.pre2.i.i18 = load i32, ptr %0, align 8
  br i1 %.not6.i.i.i17, label %_ZN4pkpy7SStreamlsEc.exit20, label %69

69:                                               ; preds = %64
  %70 = sext i32 %.pre2.i.i18 to i64
  tail call void @llvm.memcpy.p0.p0.i64(ptr align 1 %68, ptr nonnull align 1 %66, i64 %70, i1 false)
  tail call void @_ZN4pkpy14pool64_deallocEPv(ptr noundef nonnull %66) #23
  %.pre.i.i19 = load i32, ptr %0, align 8
  br label %_ZN4pkpy7SStreamlsEc.exit20

_ZN4pkpy7SStreamlsEc.exit20:                      ; preds = %53, %62, %64, %69
  %71 = phi i32 [ %.pre.i.i19, %69 ], [ %.pre2.i.i18, %64 ], [ %58, %62 ], [ %58, %53 ]
  %72 = getelementptr inbounds i8, ptr %0, i64 8
  %73 = load ptr, ptr %72, align 8
  %74 = add nsw i32 %71, 1
  store i32 %74, ptr %0, align 8
  %75 = sext i32 %71 to i64
  %76 = getelementptr inbounds i8, ptr %73, i64 %75
  store i8 %57, ptr %76, align 1
  %77 = load ptr, ptr @_ZN4pkpy12PK_HEX_TABLEE, align 8
  %78 = zext nneg i8 %5 to i64
  %79 = getelementptr inbounds i8, ptr %77, i64 %78
  %80 = load i8, ptr %79, align 1
  %81 = load i32, ptr %0, align 8
  %82 = load i32, ptr %59, align 4
  %83 = icmp eq i32 %81, %82
  br i1 %83, label %84, label %.sink.split

84:                                               ; preds = %_ZN4pkpy7SStreamlsEc.exit20
  %85 = shl nsw i32 %81, 1
  %.not.i.i.i21 = icmp slt i32 %81, %85
  br i1 %.not.i.i.i21, label %86, label %.sink.split

86:                                               ; preds = %84
  store i32 %85, ptr %59, align 4
  %87 = load ptr, ptr %72, align 8
  %88 = sext i32 %85 to i64
  %89 = tail call noundef ptr @_ZN4pkpy12pool64_allocEm(i64 noundef %88) #23
  store ptr %89, ptr %72, align 8
  %.not6.i.i.i22 = icmp eq ptr %87, null
  %.pre2.i.i23 = load i32, ptr %0, align 8
  br i1 %.not6.i.i.i22, label %.sink.split, label %90

90:                                               ; preds = %86
  %91 = sext i32 %.pre2.i.i23 to i64
  tail call void @llvm.memcpy.p0.p0.i64(ptr align 1 %89, ptr nonnull align 1 %87, i64 %91, i1 false)
  tail call void @_ZN4pkpy14pool64_deallocEPv(ptr noundef nonnull %87) #23
  %.pre.i.i24 = load i32, ptr %0, align 8
  br label %.sink.split

.sink.split:                                      ; preds = %90, %86, %84, %_ZN4pkpy7SStreamlsEc.exit20, %_ZN4pkpy7SStreamlsEc.exit15
  %.sink33 = phi ptr [ %52, %_ZN4pkpy7SStreamlsEc.exit15 ], [ %72, %_ZN4pkpy7SStreamlsEc.exit20 ], [ %72, %84 ], [ %72, %86 ], [ %72, %90 ]
  %.sink32 = phi i32 [ %51, %_ZN4pkpy7SStreamlsEc.exit15 ], [ %81, %_ZN4pkpy7SStreamlsEc.exit20 ], [ %81, %84 ], [ %.pre2.i.i23, %86 ], [ %.pre.i.i24, %90 ]
  %.sink = phi i8 [ %37, %_ZN4pkpy7SStreamlsEc.exit15 ], [ %80, %_ZN4pkpy7SStreamlsEc.exit20 ], [ %80, %84 ], [ %80, %86 ], [ %80, %90 ]
  %92 = load ptr, ptr %.sink33, align 8
  %93 = add nsw i32 %.sink32, 1
  store i32 %93, ptr %0, align 8
  %94 = sext i32 %.sink32 to i64
  %95 = getelementptr inbounds i8, ptr %92, i64 %94
  store i8 %.sink, ptr %95, align 1
  br label %96

96:                                               ; preds = %.sink.split, %32
  ret void
}